; Function Attrs: mustprogress uwtable
define hidden void @_ZN3sat3mus12update_modelEv(ptr noundef nonnull align 8 dereferenceable(44) %this) local_unnamed_addr #6 align 2 {
entry:
  %m_model = getelementptr inbounds i8, ptr %this, i64 32
  %0 = load ptr, ptr %m_model, align 8
  %cmp.i = icmp eq ptr %0, null
  br i1 %cmp.i, label %if.then, label %_ZNK6vectorI5lboolLb0EjE5emptyEv.exit

_ZNK6vectorI5lboolLb0EjE5emptyEv.exit:            ; preds = %entry
  %arrayidx.i = getelementptr inbounds i8, ptr %0, i64 -4
  %1 = load i32, ptr %arrayidx.i, align 4
  %cmp3.i = icmp eq i32 %1, 0
  br i1 %cmp3.i, label %if.then, label %if.end

if.then:                                          ; preds = %entry, %_ZNK6vectorI5lboolLb0EjE5emptyEv.exit
  %2 = load ptr, ptr %this, align 8
  %m_model3 = getelementptr inbounds i8, ptr %2, i64 2384
  br label %for.cond.i

for.cond.i:                                       ; preds = %_ZN6vectorI5lboolLb0EjE9push_backERKS0_.exit.i, %if.then
  %indvars.iv.i = phi i64 [ %indvars.iv.next.i, %_ZN6vectorI5lboolLb0EjE9push_backERKS0_.exit.i ], [ 0, %if.then ]
  %3 = load ptr, ptr %m_model3, align 8
  %cmp.i.i = icmp eq ptr %3, null
  br i1 %cmp.i.i, label %_ZNK6vectorI5lboolLb0EjE4sizeEv.exit.i, label %if.end.i.i

if.end.i.i:                                       ; preds = %for.cond.i
  %arrayidx.i.i = getelementptr inbounds i8, ptr %3, i64 -4
  %4 = load i32, ptr %arrayidx.i.i, align 4
  br label %_ZNK6vectorI5lboolLb0EjE4sizeEv.exit.i

_ZNK6vectorI5lboolLb0EjE4sizeEv.exit.i:           ; preds = %if.end.i.i, %for.cond.i
  %retval.0.i.i = phi i32 [ %4, %if.end.i.i ], [ 0, %for.cond.i ]
  %5 = zext i32 %retval.0.i.i to i64
  %cmp.i1 = icmp ult i64 %indvars.iv.i, %5
  br i1 %cmp.i1, label %for.body.i, label %if.end

for.body.i:                                       ; preds = %_ZNK6vectorI5lboolLb0EjE4sizeEv.exit.i
  %arrayidx.i4.i = getelementptr inbounds i32, ptr %3, i64 %indvars.iv.i
  %6 = load ptr, ptr %m_model, align 8
  %cmp.i5.i = icmp eq ptr %6, null
  br i1 %cmp.i5.i, label %if.then.i.i, label %lor.lhs.false.i.i

lor.lhs.false.i.i:                                ; preds = %for.body.i
  %arrayidx.i6.i = getelementptr inbounds i8, ptr %6, i64 -4
  %7 = load i32, ptr %arrayidx.i6.i, align 4
  %arrayidx4.i.i = getelementptr inbounds i8, ptr %6, i64 -8
  %8 = load i32, ptr %arrayidx4.i.i, align 4
  %cmp5.i.i = icmp eq i32 %7, %8
  br i1 %cmp5.i.i, label %if.then.i.i, label %_ZN6vectorI5lboolLb0EjE9push_backERKS0_.exit.i

if.then.i.i:                                      ; preds = %lor.lhs.false.i.i, %for.body.i
  tail call void @_ZN6vectorI5lboolLb0EjE13expand_vectorEv(ptr noundef nonnull align 8 dereferenceable(8) %m_model)
  %.pre.i.i = load ptr, ptr %m_model, align 8
  %arrayidx8.phi.trans.insert.i.i = getelementptr inbounds i8, ptr %.pre.i.i, i64 -4
  %.pre1.i.i = load i32, ptr %arrayidx8.phi.trans.insert.i.i, align 4
  br label %_ZN6vectorI5lboolLb0EjE9push_backERKS0_.exit.i

_ZN6vectorI5lboolLb0EjE9push_backERKS0_.exit.i:   ; preds = %if.then.i.i, %lor.lhs.false.i.i
  %9 = phi i32 [ %.pre1.i.i, %if.then.i.i ], [ %7, %lor.lhs.false.i.i ]
  %10 = phi ptr [ %.pre.i.i, %if.then.i.i ], [ %6, %lor.lhs.false.i.i ]
  %idx.ext.i.i = zext i32 %9 to i64
  %add.ptr.i.i = getelementptr inbounds i32, ptr %10, i64 %idx.ext.i.i
  %11 = load i32, ptr %arrayidx.i4.i, align 4
  store i32 %11, ptr %add.ptr.i.i, align 4
  %12 = load ptr, ptr %m_model, align 8
  %arrayidx10.i.i = getelementptr inbounds i8, ptr %12, i64 -4
  %13 = load i32, ptr %arrayidx10.i.i, align 4
  %inc.i.i = add i32 %13, 1
  store i32 %inc.i.i, ptr %arrayidx10.i.i, align 4
  %indvars.iv.next.i = add nuw nsw i64 %indvars.iv.i, 1
  br label %for.cond.i, !llvm.loop !6

if.end:                                           ; preds = %_ZNK6vectorI5lboolLb0EjE4sizeEv.exit.i, %_ZNK6vectorI5lboolLb0EjE5emptyEv.exit
  ret void
}